target datalayout = "e-m:e-p270:32:32-p271:32:32-p272:64:64-i64:64-i128:128-f80:128-n8:16:32:64-S128"
target triple = "x86_64-pc-linux-gnu"

%struct.H5C_class_t = type { i32, ptr, i32, i32, ptr, ptr, ptr, ptr, ptr, ptr, ptr, ptr, ptr, ptr }
%struct.H5HF_hdr_t = type { %struct.H5C_cache_entry_t, i32, i32, i8, i8, i8, i8, %struct.H5HF_dtable_t, i64, i64, i32, i64, i64, %struct.H5O_pline_t, i64, i32, i64, i64, i64, i64, i64, i64, i64, i64, i64, i64, i64, i32, ptr, i64, i8, i8, i8, ptr, i32, ptr, %struct.H5HF_block_iter_t, ptr, i64, i8, i8, i64, i8, i8, i8, i8 }
%struct.H5C_cache_entry_t = type { ptr, i64, i64, ptr, i8, ptr, i8, i8, i8, i8, i32, i8, i8, i8, i8, i8, i32, ptr, i32, i32, i32, i32, i32, i8, i8, ptr, ptr, ptr, ptr, ptr, ptr, i8, i32, i8, i64, ptr, i64, i64, i32, i8, i32, i32, i8, ptr, ptr, ptr }
%struct.H5HF_dtable_t = type { %struct.H5HF_dtable_cparam_t, i64, i32, i32, i32, i32, i32, i32, i32, i64, ptr, ptr, ptr, ptr }
%struct.H5HF_dtable_cparam_t = type { i32, i64, i64, i32, i32 }
%struct.H5O_pline_t = type { %struct.H5O_shared_t, i32, i64, i64, ptr }
%struct.H5O_shared_t = type { i32, ptr, i32, %union.anon }
%union.anon = type { %struct.H5O_mesg_loc_t }
%struct.H5O_mesg_loc_t = type { i32, i64 }
%struct.H5HF_block_iter_t = type { i8, ptr }

@H5HF_init_g = external global i8, align 1
@H5_libterm_g = external global i8, align 1
@.str = private unnamed_addr constant [101 x i8] c"generated/home/dtcxzyw/WorkSpace/Projects/compilers/llvm-opt-benchmark/bench/hdf5/hdf5/src/H5HFhdr.c\00", align 1
@H5E_HEAP_g = external global i64, align 8
@H5AC_FHEAP_HDR = external constant [1 x %struct.H5C_class_t], align 16
@.str.20 = private unnamed_addr constant [38 x i8] c"unable to release fractal heap header\00", align 1
@H5E_CANTUNPROTECT_g = external global i64, align 8
@H5E_CANTFREE_g = external global i64, align 8
@__func__.H5HF__hdr_delete = private unnamed_addr constant [17 x i8] c"H5HF__hdr_delete\00", align 1
@.str.47 = private unnamed_addr constant [50 x i8] c"unable to release fractal heap free space manager\00", align 1
@.str.48 = private unnamed_addr constant [49 x i8] c"unable to release fractal heap root direct block\00", align 1
@.str.49 = private unnamed_addr constant [51 x i8] c"unable to release fractal heap root indirect block\00", align 1
@.str.50 = private unnamed_addr constant [58 x i8] c"unable to release fractal heap 'huge' objects and tracker\00", align 1

; Function Attrs: nounwind uwtable
define i32 @H5HF__hdr_delete(ptr noundef %0) #0 {
  %2 = alloca i32, align 4
  %3 = alloca ptr, align 8
  %4 = alloca i32, align 4
  %5 = alloca i32, align 4
  %6 = alloca i8, align 1
  %7 = alloca i64, align 8
  %8 = alloca i32, align 4
  store ptr %0, ptr %3, align 8, !tbaa !8
  call void @llvm.lifetime.start.p0(i64 4, ptr %4) #7
  store i32 0, ptr %4, align 4, !tbaa !38
  call void @llvm.lifetime.start.p0(i64 4, ptr %5) #7
  store i32 0, ptr %5, align 4, !tbaa !38
  call void @llvm.lifetime.start.p0(i64 1, ptr %6) #7
  store i8 0, ptr %6, align 1, !tbaa !10
  %9 = load i8, ptr @H5HF_init_g, align 1, !tbaa !10, !range !12, !noundef !13
  %10 = trunc i8 %9 to i1
  br i1 %10, label %15, label %11

11:                                               ; preds = %1
  %12 = load i8, ptr @H5_libterm_g, align 1, !tbaa !10, !range !12, !noundef !13
  %13 = trunc i8 %12 to i1
  %14 = xor i1 %13, true
  br label %15

15:                                               ; preds = %11, %1
  %16 = phi i1 [ true, %1 ], [ %14, %11 ]
  %17 = xor i1 %16, true
  %18 = xor i1 %17, true
  %19 = zext i1 %18 to i32
  %20 = sext i32 %19 to i64
  %21 = call i64 @llvm.expect.i64(i64 %20, i64 1)
  %22 = icmp ne i64 %21, 0
  br i1 %22, label %23, label %210

23:                                               ; preds = %15
  %24 = load ptr, ptr %3, align 8, !tbaa !8
  %25 = getelementptr inbounds nuw %struct.H5HF_hdr_t, ptr %24, i32 0, i32 9
  %26 = load i64, ptr %25, align 8, !tbaa !61
  %27 = icmp ne i64 %26, -1
  br i1 %27, label %28, label %52

28:                                               ; preds = %23
  %29 = load ptr, ptr %3, align 8, !tbaa !8
  %30 = call i32 @H5HF__space_delete(ptr noundef %29)
  %31 = icmp slt i32 %30, 0
  br i1 %31, label %32, label %51

32:                                               ; preds = %28
  br label %33

33:                                               ; preds = %32
  br label %34

34:                                               ; preds = %33
  br label %35

35:                                               ; preds = %34
  %36 = load i64, ptr @H5E_HEAP_g, align 8, !tbaa !14
  %37 = load i64, ptr @H5E_CANTFREE_g, align 8, !tbaa !14
  %38 = call i32 (ptr, ptr, i32, i64, i64, ptr, ...) @H5E_printf_stack(ptr noundef @.str, ptr noundef @__func__.H5HF__hdr_delete, i32 noundef 1380, i64 noundef %36, i64 noundef %37, ptr noundef @.str.47)
  br label %39

39:                                               ; preds = %35
  br label %40

40:                                               ; preds = %39
  store i8 1, ptr %6, align 1, !tbaa !10
  %41 = load i8, ptr %6, align 1, !tbaa !10, !range !12, !noundef !13
  %42 = trunc i8 %41 to i1
  %43 = zext i1 %42 to i8
  store i8 %43, ptr %6, align 1, !tbaa !10
  br label %44

44:                                               ; preds = %40
  br label %45

45:                                               ; preds = %44
  br label %46

46:                                               ; preds = %45
  store i32 -1, ptr %5, align 4, !tbaa !38
  br label %182

47:                                               ; No predecessors!
  br label %48

48:                                               ; preds = %47
  br label %49

49:                                               ; preds = %48
  br label %50

50:                                               ; preds = %49
  br label %51

51:                                               ; preds = %50, %28
  br label %52

52:                                               ; preds = %51, %23
  %53 = load ptr, ptr %3, align 8, !tbaa !8
  %54 = getelementptr inbounds nuw %struct.H5HF_hdr_t, ptr %53, i32 0, i32 7
  %55 = getelementptr inbounds nuw %struct.H5HF_dtable_t, ptr %54, i32 0, i32 1
  %56 = load i64, ptr %55, align 8, !tbaa !60
  %57 = icmp ne i64 %56, -1
  br i1 %57, label %58, label %150

58:                                               ; preds = %52
  %59 = load ptr, ptr %3, align 8, !tbaa !8
  %60 = getelementptr inbounds nuw %struct.H5HF_hdr_t, ptr %59, i32 0, i32 7
  %61 = getelementptr inbounds nuw %struct.H5HF_dtable_t, ptr %60, i32 0, i32 2
  %62 = load i32, ptr %61, align 8, !tbaa !82
  %63 = icmp eq i32 %62, 0
  br i1 %63, label %64, label %117

64:                                               ; preds = %58
  call void @llvm.lifetime.start.p0(i64 8, ptr %7) #7
  %65 = load ptr, ptr %3, align 8, !tbaa !8
  %66 = getelementptr inbounds nuw %struct.H5HF_hdr_t, ptr %65, i32 0, i32 2
  %67 = load i32, ptr %66, align 4, !tbaa !65
  %68 = icmp ugt i32 %67, 0
  br i1 %68, label %69, label %77

69:                                               ; preds = %64
  %70 = load ptr, ptr %3, align 8, !tbaa !8
  %71 = getelementptr inbounds nuw %struct.H5HF_hdr_t, ptr %70, i32 0, i32 14
  %72 = load i64, ptr %71, align 8, !tbaa !99
  store i64 %72, ptr %7, align 8, !tbaa !14
  %73 = load ptr, ptr %3, align 8, !tbaa !8
  %74 = getelementptr inbounds nuw %struct.H5HF_hdr_t, ptr %73, i32 0, i32 14
  store i64 0, ptr %74, align 8, !tbaa !99
  %75 = load ptr, ptr %3, align 8, !tbaa !8
  %76 = getelementptr inbounds nuw %struct.H5HF_hdr_t, ptr %75, i32 0, i32 15
  store i32 0, ptr %76, align 8, !tbaa !100
  br label %83

77:                                               ; preds = %64
  %78 = load ptr, ptr %3, align 8, !tbaa !8
  %79 = getelementptr inbounds nuw %struct.H5HF_hdr_t, ptr %78, i32 0, i32 7
  %80 = getelementptr inbounds nuw %struct.H5HF_dtable_t, ptr %79, i32 0, i32 0
  %81 = getelementptr inbounds nuw %struct.H5HF_dtable_cparam_t, ptr %80, i32 0, i32 1
  %82 = load i64, ptr %81, align 8, !tbaa !90
  store i64 %82, ptr %7, align 8, !tbaa !14
  br label %83

83:                                               ; preds = %77, %69
  %84 = load ptr, ptr %3, align 8, !tbaa !8
  %85 = getelementptr inbounds nuw %struct.H5HF_hdr_t, ptr %84, i32 0, i32 28
  %86 = load ptr, ptr %85, align 8, !tbaa !16
  %87 = load ptr, ptr %3, align 8, !tbaa !8
  %88 = getelementptr inbounds nuw %struct.H5HF_hdr_t, ptr %87, i32 0, i32 7
  %89 = getelementptr inbounds nuw %struct.H5HF_dtable_t, ptr %88, i32 0, i32 1
  %90 = load i64, ptr %89, align 8, !tbaa !60
  %91 = load i64, ptr %7, align 8, !tbaa !14
  %92 = call i32 @H5HF__man_dblock_delete(ptr noundef %86, i64 noundef %90, i64 noundef %91)
  %93 = icmp slt i32 %92, 0
  br i1 %93, label %94, label %113

94:                                               ; preds = %83
  br label %95

95:                                               ; preds = %94
  br label %96

96:                                               ; preds = %95
  br label %97

97:                                               ; preds = %96
  %98 = load i64, ptr @H5E_HEAP_g, align 8, !tbaa !14
  %99 = load i64, ptr @H5E_CANTFREE_g, align 8, !tbaa !14
  %100 = call i32 (ptr, ptr, i32, i64, i64, ptr, ...) @H5E_printf_stack(ptr noundef @.str, ptr noundef @__func__.H5HF__hdr_delete, i32 noundef 1401, i64 noundef %98, i64 noundef %99, ptr noundef @.str.48)
  br label %101

101:                                              ; preds = %97
  br label %102

102:                                              ; preds = %101
  store i8 1, ptr %6, align 1, !tbaa !10
  %103 = load i8, ptr %6, align 1, !tbaa !10, !range !12, !noundef !13
  %104 = trunc i8 %103 to i1
  %105 = zext i1 %104 to i8
  store i8 %105, ptr %6, align 1, !tbaa !10
  br label %106

106:                                              ; preds = %102
  br label %107

107:                                              ; preds = %106
  br label %108

108:                                              ; preds = %107
  store i32 -1, ptr %5, align 4, !tbaa !38
  store i32 10, ptr %8, align 4
  br label %114

109:                                              ; No predecessors!
  br label %110

110:                                              ; preds = %109
  br label %111

111:                                              ; preds = %110
  br label %112

112:                                              ; preds = %111
  br label %113

113:                                              ; preds = %112, %83
  store i32 0, ptr %8, align 4
  br label %114

114:                                              ; preds = %108, %113
  call void @llvm.lifetime.end.p0(i64 8, ptr %7) #7
  %115 = load i32, ptr %8, align 4
  switch i32 %115, label %212 [
    i32 0, label %116
    i32 10, label %182
  ]

116:                                              ; preds = %114
  br label %149

117:                                              ; preds = %58
  %118 = load ptr, ptr %3, align 8, !tbaa !8
  %119 = load ptr, ptr %3, align 8, !tbaa !8
  %120 = getelementptr inbounds nuw %struct.H5HF_hdr_t, ptr %119, i32 0, i32 7
  %121 = getelementptr inbounds nuw %struct.H5HF_dtable_t, ptr %120, i32 0, i32 1
  %122 = load i64, ptr %121, align 8, !tbaa !60
  %123 = load ptr, ptr %3, align 8, !tbaa !8
  %124 = getelementptr inbounds nuw %struct.H5HF_hdr_t, ptr %123, i32 0, i32 7
  %125 = getelementptr inbounds nuw %struct.H5HF_dtable_t, ptr %124, i32 0, i32 2
  %126 = load i32, ptr %125, align 8, !tbaa !82
  %127 = call i32 @H5HF__man_iblock_delete(ptr noundef %118, i64 noundef %122, i32 noundef %126, ptr noundef null, i32 noundef 0)
  %128 = icmp slt i32 %127, 0
  br i1 %128, label %129, label %148

129:                                              ; preds = %117
  br label %130

130:                                              ; preds = %129
  br label %131

131:                                              ; preds = %130
  br label %132

132:                                              ; preds = %131
  %133 = load i64, ptr @H5E_HEAP_g, align 8, !tbaa !14
  %134 = load i64, ptr @H5E_CANTFREE_g, align 8, !tbaa !14
  %135 = call i32 (ptr, ptr, i32, i64, i64, ptr, ...) @H5E_printf_stack(ptr noundef @.str, ptr noundef @__func__.H5HF__hdr_delete, i32 noundef 1408, i64 noundef %133, i64 noundef %134, ptr noundef @.str.49)
  br label %136

136:                                              ; preds = %132
  br label %137

137:                                              ; preds = %136
  store i8 1, ptr %6, align 1, !tbaa !10
  %138 = load i8, ptr %6, align 1, !tbaa !10, !range !12, !noundef !13
  %139 = trunc i8 %138 to i1
  %140 = zext i1 %139 to i8
  store i8 %140, ptr %6, align 1, !tbaa !10
  br label %141

141:                                              ; preds = %137
  br label %142

142:                                              ; preds = %141
  br label %143

143:                                              ; preds = %142
  store i32 -1, ptr %5, align 4, !tbaa !38
  br label %182

144:                                              ; No predecessors!
  br label %145

145:                                              ; preds = %144
  br label %146

146:                                              ; preds = %145
  br label %147

147:                                              ; preds = %146
  br label %148

148:                                              ; preds = %147, %117
  br label %149

149:                                              ; preds = %148, %116
  br label %150

150:                                              ; preds = %149, %52
  %151 = load ptr, ptr %3, align 8, !tbaa !8
  %152 = getelementptr inbounds nuw %struct.H5HF_hdr_t, ptr %151, i32 0, i32 12
  %153 = load i64, ptr %152, align 8, !tbaa !62
  %154 = icmp ne i64 %153, -1
  br i1 %154, label %155, label %179

155:                                              ; preds = %150
  %156 = load ptr, ptr %3, align 8, !tbaa !8
  %157 = call i32 @H5HF__huge_delete(ptr noundef %156)
  %158 = icmp slt i32 %157, 0
  br i1 %158, label %159, label %178

159:                                              ; preds = %155
  br label %160

160:                                              ; preds = %159
  br label %161

161:                                              ; preds = %160
  br label %162

162:                                              ; preds = %161
  %163 = load i64, ptr @H5E_HEAP_g, align 8, !tbaa !14
  %164 = load i64, ptr @H5E_CANTFREE_g, align 8, !tbaa !14
  %165 = call i32 (ptr, ptr, i32, i64, i64, ptr, ...) @H5E_printf_stack(ptr noundef @.str, ptr noundef @__func__.H5HF__hdr_delete, i32 noundef 1417, i64 noundef %163, i64 noundef %164, ptr noundef @.str.50)
  br label %166

166:                                              ; preds = %162
  br label %167

167:                                              ; preds = %166
  store i8 1, ptr %6, align 1, !tbaa !10
  %168 = load i8, ptr %6, align 1, !tbaa !10, !range !12, !noundef !13
  %169 = trunc i8 %168 to i1
  %170 = zext i1 %169 to i8
  store i8 %170, ptr %6, align 1, !tbaa !10
  br label %171

171:                                              ; preds = %167
  br label %172

172:                                              ; preds = %171
  br label %173

173:                                              ; preds = %172
  store i32 -1, ptr %5, align 4, !tbaa !38
  br label %182

174:                                              ; No predecessors!
  br label %175

175:                                              ; preds = %174
  br label %176

176:                                              ; preds = %175
  br label %177

177:                                              ; preds = %176
  br label %178

178:                                              ; preds = %177, %155
  br label %179

179:                                              ; preds = %178, %150
  %180 = load i32, ptr %4, align 4, !tbaa !38
  %181 = or i32 %180, 259
  store i32 %181, ptr %4, align 4, !tbaa !38
  br label %182

182:                                              ; preds = %179, %114, %173, %143, %46
  %183 = load ptr, ptr %3, align 8, !tbaa !8
  %184 = getelementptr inbounds nuw %struct.H5HF_hdr_t, ptr %183, i32 0, i32 28
  %185 = load ptr, ptr %184, align 8, !tbaa !16
  %186 = load ptr, ptr %3, align 8, !tbaa !8
  %187 = getelementptr inbounds nuw %struct.H5HF_hdr_t, ptr %186, i32 0, i32 25
  %188 = load i64, ptr %187, align 8, !tbaa !70
  %189 = load ptr, ptr %3, align 8, !tbaa !8
  %190 = load i32, ptr %4, align 4, !tbaa !38
  %191 = call i32 @H5AC_unprotect(ptr noundef %185, ptr noundef @H5AC_FHEAP_HDR, i64 noundef %188, ptr noundef %189, i32 noundef %190)
  %192 = icmp slt i32 %191, 0
  br i1 %192, label %193, label %209

193:                                              ; preds = %182
  br label %194

194:                                              ; preds = %193
  br label %195

195:                                              ; preds = %194
  br label %196

196:                                              ; preds = %195
  %197 = load i64, ptr @H5E_HEAP_g, align 8, !tbaa !14
  %198 = load i64, ptr @H5E_CANTUNPROTECT_g, align 8, !tbaa !14
  %199 = call i32 (ptr, ptr, i32, i64, i64, ptr, ...) @H5E_printf_stack(ptr noundef @.str, ptr noundef @__func__.H5HF__hdr_delete, i32 noundef 1426, i64 noundef %197, i64 noundef %198, ptr noundef @.str.20)
  br label %200

200:                                              ; preds = %196
  br label %201

201:                                              ; preds = %200
  store i8 1, ptr %6, align 1, !tbaa !10
  %202 = load i8, ptr %6, align 1, !tbaa !10, !range !12, !noundef !13
  %203 = trunc i8 %202 to i1
  %204 = zext i1 %203 to i8
  store i8 %204, ptr %6, align 1, !tbaa !10
  br label %205

205:                                              ; preds = %201
  br label %206

206:                                              ; preds = %205
  store i32 -1, ptr %5, align 4, !tbaa !38
  br label %207

207:                                              ; preds = %206
  br label %208

208:                                              ; preds = %207
  br label %209

209:                                              ; preds = %208, %182
  br label %210

210:                                              ; preds = %209, %15
  %211 = load i32, ptr %5, align 4, !tbaa !38
  store i32 %211, ptr %2, align 4
  store i32 1, ptr %8, align 4
  br label %212

212:                                              ; preds = %210, %114
  call void @llvm.lifetime.end.p0(i64 1, ptr %6) #7
  call void @llvm.lifetime.end.p0(i64 4, ptr %5) #7
  call void @llvm.lifetime.end.p0(i64 4, ptr %4) #7
  %213 = load i32, ptr %2, align 4
  ret i32 %213
}