; Function Attrs: nounwind uwtable
define range(i32 -1, 1) i32 @H5HF__hdr_delete(ptr noundef %0) local_unnamed_addr #0 {
  %2 = load i8, ptr @H5HF_init_g, align 1, !tbaa !3, !range !7, !noundef !8
  %3 = trunc nuw i8 %2 to i1
  %4 = load i8, ptr @H5_libterm_g, align 1, !range !7
  %5 = trunc nuw i8 %4 to i1
  %6 = xor i1 %5, true
  %7 = select i1 %3, i1 true, i1 %6
  br i1 %7, label %8, label %71, !prof !9

8:                                                ; preds = %1
  %9 = getelementptr inbounds nuw i8, ptr %0, i64 384
  %10 = load i64, ptr %9, align 8, !tbaa !57
  %.not = icmp eq i64 %10, -1
  br i1 %.not, label %18, label %11

11:                                               ; preds = %8
  %12 = tail call i32 @H5HF__space_delete(ptr noundef nonnull %0) #7
  %13 = icmp slt i32 %12, 0
  br i1 %13, label %14, label %18

14:                                               ; preds = %11
  %15 = load i64, ptr @H5E_HEAP_g, align 8, !tbaa !10
  %16 = load i64, ptr @H5E_CANTFREE_g, align 8, !tbaa !10
  %17 = tail call i32 (ptr, ptr, i32, i64, i64, ptr, ...) @H5E_printf_stack(ptr noundef nonnull @.str, ptr noundef nonnull @__func__.H5HF__hdr_delete, i32 noundef 1380, i64 noundef %15, i64 noundef %16, ptr noundef nonnull @.str.47) #7
  br label %60

18:                                               ; preds = %11, %8
  %19 = getelementptr inbounds nuw i8, ptr %0, i64 296
  %20 = load i64, ptr %19, align 8, !tbaa !56
  %.not35 = icmp eq i64 %20, -1
  br i1 %.not35, label %.thread, label %21

21:                                               ; preds = %18
  %22 = getelementptr inbounds nuw i8, ptr %0, i64 304
  %23 = load i32, ptr %22, align 8, !tbaa !77
  %24 = icmp eq i32 %23, 0
  br i1 %24, label %25, label %44

25:                                               ; preds = %21
  %26 = getelementptr inbounds nuw i8, ptr %0, i64 252
  %27 = load i32, ptr %26, align 4, !tbaa !61
  %.not36 = icmp eq i32 %27, 0
  br i1 %.not36, label %32, label %28

28:                                               ; preds = %25
  %29 = getelementptr inbounds nuw i8, ptr %0, i64 488
  %30 = load i64, ptr %29, align 8, !tbaa !97
  store i64 0, ptr %29, align 8, !tbaa !97
  %31 = getelementptr inbounds nuw i8, ptr %0, i64 496
  store i32 0, ptr %31, align 8, !tbaa !98
  br label %35

32:                                               ; preds = %25
  %33 = getelementptr inbounds nuw i8, ptr %0, i64 272
  %34 = load i64, ptr %33, align 8, !tbaa !88
  br label %35

35:                                               ; preds = %32, %28
  %.029 = phi i64 [ %30, %28 ], [ %34, %32 ]
  %36 = getelementptr inbounds nuw i8, ptr %0, i64 600
  %37 = load ptr, ptr %36, align 8, !tbaa !12
  %38 = tail call i32 @H5HF__man_dblock_delete(ptr noundef %37, i64 noundef %20, i64 noundef %.029) #7
  %39 = icmp slt i32 %38, 0
  br i1 %39, label %40, label %.thread

40:                                               ; preds = %35
  %41 = load i64, ptr @H5E_HEAP_g, align 8, !tbaa !10
  %42 = load i64, ptr @H5E_CANTFREE_g, align 8, !tbaa !10
  %43 = tail call i32 (ptr, ptr, i32, i64, i64, ptr, ...) @H5E_printf_stack(ptr noundef nonnull @.str, ptr noundef nonnull @__func__.H5HF__hdr_delete, i32 noundef 1401, i64 noundef %41, i64 noundef %42, ptr noundef nonnull @.str.48) #7
  br label %60

44:                                               ; preds = %21
  %45 = tail call i32 @H5HF__man_iblock_delete(ptr noundef nonnull %0, i64 noundef %20, i32 noundef %23, ptr noundef null, i32 noundef 0) #7
  %46 = icmp slt i32 %45, 0
  br i1 %46, label %47, label %.thread

47:                                               ; preds = %44
  %48 = load i64, ptr @H5E_HEAP_g, align 8, !tbaa !10
  %49 = load i64, ptr @H5E_CANTFREE_g, align 8, !tbaa !10
  %50 = tail call i32 (ptr, ptr, i32, i64, i64, ptr, ...) @H5E_printf_stack(ptr noundef nonnull @.str, ptr noundef nonnull @__func__.H5HF__hdr_delete, i32 noundef 1408, i64 noundef %48, i64 noundef %49, ptr noundef nonnull @.str.49) #7
  br label %60

.thread:                                          ; preds = %35, %44, %18
  %51 = getelementptr inbounds nuw i8, ptr %0, i64 408
  %52 = load i64, ptr %51, align 8, !tbaa !58
  %.not37 = icmp eq i64 %52, -1
  br i1 %.not37, label %60, label %53

53:                                               ; preds = %.thread
  %54 = tail call i32 @H5HF__huge_delete(ptr noundef nonnull %0) #7
  %55 = icmp slt i32 %54, 0
  br i1 %55, label %56, label %60

56:                                               ; preds = %53
  %57 = load i64, ptr @H5E_HEAP_g, align 8, !tbaa !10
  %58 = load i64, ptr @H5E_CANTFREE_g, align 8, !tbaa !10
  %59 = tail call i32 (ptr, ptr, i32, i64, i64, ptr, ...) @H5E_printf_stack(ptr noundef nonnull @.str, ptr noundef nonnull @__func__.H5HF__hdr_delete, i32 noundef 1417, i64 noundef %57, i64 noundef %58, ptr noundef nonnull @.str.50) #7
  br label %60

60:                                               ; preds = %40, %.thread, %53, %56, %47, %14
  %.031 = phi i32 [ 0, %14 ], [ 0, %40 ], [ 0, %56 ], [ 0, %47 ], [ 259, %53 ], [ 259, %.thread ]
  %.1 = phi i32 [ -1, %14 ], [ -1, %40 ], [ -1, %56 ], [ -1, %47 ], [ 0, %53 ], [ 0, %.thread ]
  %61 = getelementptr inbounds nuw i8, ptr %0, i64 600
  %62 = load ptr, ptr %61, align 8, !tbaa !12
  %63 = getelementptr inbounds nuw i8, ptr %0, i64 576
  %64 = load i64, ptr %63, align 8, !tbaa !66
  %65 = tail call i32 @H5AC_unprotect(ptr noundef %62, ptr noundef nonnull @H5AC_FHEAP_HDR, i64 noundef %64, ptr noundef nonnull %0, i32 noundef %.031) #7
  %66 = icmp slt i32 %65, 0
  br i1 %66, label %67, label %71

67:                                               ; preds = %60
  %68 = load i64, ptr @H5E_HEAP_g, align 8, !tbaa !10
  %69 = load i64, ptr @H5E_CANTUNPROTECT_g, align 8, !tbaa !10
  %70 = tail call i32 (ptr, ptr, i32, i64, i64, ptr, ...) @H5E_printf_stack(ptr noundef nonnull @.str, ptr noundef nonnull @__func__.H5HF__hdr_delete, i32 noundef 1426, i64 noundef %68, i64 noundef %69, ptr noundef nonnull @.str.20) #7
  br label %71

71:                                               ; preds = %1, %67, %60
  %.032 = phi i32 [ -1, %67 ], [ %.1, %60 ], [ 0, %1 ]
  ret i32 %.032
}